; ModuleID = '41/320.cpp'
source_filename = "41/320.cpp"
target datalayout = "e-m:e-p270:32:32-p271:32:32-p272:64:64-i64:64-f80:128-n8:16:32:64-S128"
target triple = "x86_64-pc-linux-gnu"

%"class.std::ios_base::Init" = type { i8 }
%"class.std::basic_ostream" = type { i32 (...)**, %"class.std::basic_ios" }
%"class.std::basic_ios" = type { %"class.std::ios_base", %"class.std::basic_ostream"*, i8, i8, %"class.std::basic_streambuf"*, %"class.std::ctype"*, %"class.std::num_put"*, %"class.std::num_get"* }
%"class.std::ios_base" = type { i32 (...)**, i64, i64, i32, i32, i32, %"struct.std::ios_base::_Callback_list"*, %"struct.std::ios_base::_Words", [8 x %"struct.std::ios_base::_Words"], i32, %"struct.std::ios_base::_Words"*, %"class.std::locale" }
%"struct.std::ios_base::_Callback_list" = type { %"struct.std::ios_base::_Callback_list"*, void (i32, %"class.std::ios_base"*, i32)*, i32, i32 }
%"struct.std::ios_base::_Words" = type { i8*, i64 }
%"class.std::locale" = type { %"class.std::locale::_Impl"* }
%"class.std::locale::_Impl" = type { i32, %"class.std::locale::facet"**, i64, %"class.std::locale::facet"**, i8** }
%"class.std::locale::facet" = type <{ i32 (...)**, i32, [4 x i8] }>
%"class.std::basic_streambuf" = type { i32 (...)**, i8*, i8*, i8*, i8*, i8*, i8*, %"class.std::locale" }
%"class.std::ctype" = type <{ %"class.std::locale::facet.base", [4 x i8], %struct.__locale_struct*, i8, [7 x i8], i32*, i32*, i16*, i8, [256 x i8], [256 x i8], i8, [6 x i8] }>
%"class.std::locale::facet.base" = type <{ i32 (...)**, i32 }>
%struct.__locale_struct = type { [13 x %struct.__locale_data*], i16*, i32*, i32*, [13 x i8*] }
%struct.__locale_data = type opaque
%"class.std::num_put" = type { %"class.std::locale::facet.base", [4 x i8] }
%"class.std::num_get" = type { %"class.std::locale::facet.base", [4 x i8] }

@_ZStL8__ioinit = internal global %"class.std::ios_base::Init" zeroinitializer, align 1
@__dso_handle = external hidden global i8
@_ZSt4cout = external dso_local global %"class.std::basic_ostream", align 8
@llvm.global_ctors = appending global [1 x { i32, void ()*, i8* }] [{ i32, void ()*, i8* } { i32 65535, void ()* @_GLOBAL__sub_I_320.cpp, i8* null }]

; Function Attrs: noinline uwtable
define internal void @__cxx_global_var_init() #0 section ".text.startup" {
  call void @_ZNSt8ios_base4InitC1Ev(%"class.std::ios_base::Init"* @_ZStL8__ioinit)
  %1 = call i32 @__cxa_atexit(void (i8*)* bitcast (void (%"class.std::ios_base::Init"*)* @_ZNSt8ios_base4InitD1Ev to void (i8*)*), i8* getelementptr inbounds (%"class.std::ios_base::Init", %"class.std::ios_base::Init"* @_ZStL8__ioinit, i32 0, i32 0), i8* @__dso_handle) #3
  ret void
}

declare dso_local void @_ZNSt8ios_base4InitC1Ev(%"class.std::ios_base::Init"*) unnamed_addr #1

; Function Attrs: nounwind
declare dso_local void @_ZNSt8ios_base4InitD1Ev(%"class.std::ios_base::Init"*) unnamed_addr #2

; Function Attrs: nounwind
declare dso_local i32 @__cxa_atexit(void (i8*)*, i8*, i8*) #3

; Function Attrs: noinline norecurse uwtable
define dso_local i32 @main() #4 {
  %1 = alloca i32, align 4
  %2 = alloca i32, align 4
  %3 = alloca i32, align 4
  %4 = alloca i32, align 4
  %5 = alloca i32, align 4
  %6 = alloca i32, align 4
  store i32 0, i32* %1, align 4
  store i32 1, i32* %2, align 4
  br label %7

7:                                                ; preds = %173, %0
  %8 = load i32, i32* %2, align 4
  %9 = icmp sle i32 %8, 5
  br i1 %9, label %10, label %176

10:                                               ; preds = %7
  store i32 1, i32* %3, align 4
  br label %11

11:                                               ; preds = %169, %10
  %12 = load i32, i32* %3, align 4
  %13 = icmp sle i32 %12, 5
  br i1 %13, label %14, label %172

14:                                               ; preds = %11
  %15 = load i32, i32* %3, align 4
  %16 = load i32, i32* %2, align 4
  %17 = icmp eq i32 %15, %16
  br i1 %17, label %18, label %19

18:                                               ; preds = %14
  br label %169

19:                                               ; preds = %14
  store i32 1, i32* %4, align 4
  br label %20

20:                                               ; preds = %165, %19
  %21 = load i32, i32* %4, align 4
  %22 = icmp sle i32 %21, 5
  br i1 %22, label %23, label %168

23:                                               ; preds = %20
  %24 = load i32, i32* %4, align 4
  %25 = load i32, i32* %3, align 4
  %26 = icmp eq i32 %24, %25
  br i1 %26, label %31, label %27

27:                                               ; preds = %23
  %28 = load i32, i32* %4, align 4
  %29 = load i32, i32* %2, align 4
  %30 = icmp eq i32 %28, %29
  br i1 %30, label %31, label %32

31:                                               ; preds = %27, %23
  br label %165

32:                                               ; preds = %27
  store i32 1, i32* %5, align 4
  br label %33

33:                                               ; preds = %161, %32
  %34 = load i32, i32* %5, align 4
  %35 = icmp sle i32 %34, 5
  br i1 %35, label %36, label %164

36:                                               ; preds = %33
  %37 = load i32, i32* %5, align 4
  %38 = load i32, i32* %2, align 4
  %39 = icmp eq i32 %37, %38
  br i1 %39, label %48, label %40

40:                                               ; preds = %36
  %41 = load i32, i32* %5, align 4
  %42 = load i32, i32* %3, align 4
  %43 = icmp eq i32 %41, %42
  br i1 %43, label %48, label %44

44:                                               ; preds = %40
  %45 = load i32, i32* %5, align 4
  %46 = load i32, i32* %4, align 4
  %47 = icmp eq i32 %45, %46
  br i1 %47, label %48, label %49

48:                                               ; preds = %44, %40, %36
  br label %161

49:                                               ; preds = %44
  store i32 1, i32* %6, align 4
  br label %50

50:                                               ; preds = %157, %49
  %51 = load i32, i32* %6, align 4
  %52 = icmp sle i32 %51, 5
  br i1 %52, label %53, label %160

53:                                               ; preds = %50
  %54 = load i32, i32* %6, align 4
  %55 = load i32, i32* %2, align 4
  %56 = icmp ne i32 %54, %55
  br i1 %56, label %57, label %156

57:                                               ; preds = %53
  %58 = load i32, i32* %6, align 4
  %59 = load i32, i32* %3, align 4
  %60 = icmp ne i32 %58, %59
  br i1 %60, label %61, label %156

61:                                               ; preds = %57
  %62 = load i32, i32* %6, align 4
  %63 = load i32, i32* %4, align 4
  %64 = icmp ne i32 %62, %63
  br i1 %64, label %65, label %156

65:                                               ; preds = %61
  %66 = load i32, i32* %6, align 4
  %67 = load i32, i32* %5, align 4
  %68 = icmp ne i32 %66, %67
  br i1 %68, label %69, label %156

69:                                               ; preds = %65
  %70 = load i32, i32* %6, align 4
  %71 = icmp ne i32 %70, 3
  br i1 %71, label %72, label %155

72:                                               ; preds = %69
  %73 = load i32, i32* %6, align 4
  %74 = icmp ne i32 %73, 2
  br i1 %74, label %75, label %155

75:                                               ; preds = %72
  %76 = load i32, i32* %2, align 4
  %77 = icmp eq i32 %76, 1
  br i1 %77, label %81, label %78

78:                                               ; preds = %75
  %79 = load i32, i32* %2, align 4
  %80 = icmp eq i32 %79, 2
  br label %81

81:                                               ; preds = %78, %75
  %82 = phi i1 [ true, %75 ], [ %80, %78 ]
  %83 = zext i1 %82 to i32
  %84 = load i32, i32* %6, align 4
  %85 = icmp eq i32 %84, 1
  %86 = zext i1 %85 to i32
  %87 = icmp eq i32 %83, %86
  br i1 %87, label %88, label %155

88:                                               ; preds = %81
  %89 = load i32, i32* %3, align 4
  %90 = icmp eq i32 %89, 1
  br i1 %90, label %94, label %91

91:                                               ; preds = %88
  %92 = load i32, i32* %3, align 4
  %93 = icmp eq i32 %92, 2
  br label %94

94:                                               ; preds = %91, %88
  %95 = phi i1 [ true, %88 ], [ %93, %91 ]
  %96 = zext i1 %95 to i32
  %97 = load i32, i32* %3, align 4
  %98 = icmp eq i32 %97, 2
  %99 = zext i1 %98 to i32
  %100 = icmp eq i32 %96, %99
  br i1 %100, label %101, label %155

101:                                              ; preds = %94
  %102 = load i32, i32* %4, align 4
  %103 = icmp eq i32 %102, 1
  br i1 %103, label %107, label %104

104:                                              ; preds = %101
  %105 = load i32, i32* %4, align 4
  %106 = icmp eq i32 %105, 2
  br label %107

107:                                              ; preds = %104, %101
  %108 = phi i1 [ true, %101 ], [ %106, %104 ]
  %109 = zext i1 %108 to i32
  %110 = load i32, i32* %2, align 4
  %111 = icmp eq i32 %110, 5
  %112 = zext i1 %111 to i32
  %113 = icmp eq i32 %109, %112
  br i1 %113, label %114, label %155

114:                                              ; preds = %107
  %115 = load i32, i32* %5, align 4
  %116 = icmp eq i32 %115, 1
  br i1 %116, label %120, label %117

117:                                              ; preds = %114
  %118 = load i32, i32* %5, align 4
  %119 = icmp eq i32 %118, 2
  br label %120

120:                                              ; preds = %117, %114
  %121 = phi i1 [ true, %114 ], [ %119, %117 ]
  %122 = zext i1 %121 to i32
  %123 = load i32, i32* %4, align 4
  %124 = icmp ne i32 %123, 1
  %125 = zext i1 %124 to i32
  %126 = icmp eq i32 %122, %125
  br i1 %126, label %127, label %155

127:                                              ; preds = %120
  %128 = load i32, i32* %6, align 4
  %129 = icmp eq i32 %128, 1
  br i1 %129, label %133, label %130

130:                                              ; preds = %127
  %131 = load i32, i32* %6, align 4
  %132 = icmp eq i32 %131, 2
  br label %133

133:                                              ; preds = %130, %127
  %134 = phi i1 [ true, %127 ], [ %132, %130 ]
  %135 = zext i1 %134 to i32
  %136 = load i32, i32* %5, align 4
  %137 = icmp eq i32 %136, 1
  %138 = zext i1 %137 to i32
  %139 = icmp eq i32 %135, %138
  br i1 %139, label %140, label %155

140:                                              ; preds = %133
  %141 = load i32, i32* %2, align 4
  %142 = call dereferenceable(272) %"class.std::basic_ostream"* @_ZNSolsEi(%"class.std::basic_ostream"* @_ZSt4cout, i32 %141)
  %143 = call dereferenceable(272) %"class.std::basic_ostream"* @_ZStlsISt11char_traitsIcEERSt13basic_ostreamIcT_ES5_c(%"class.std::basic_ostream"* dereferenceable(272) %142, i8 signext 32)
  %144 = load i32, i32* %3, align 4
  %145 = call dereferenceable(272) %"class.std::basic_ostream"* @_ZNSolsEi(%"class.std::basic_ostream"* %143, i32 %144)
  %146 = call dereferenceable(272) %"class.std::basic_ostream"* @_ZStlsISt11char_traitsIcEERSt13basic_ostreamIcT_ES5_c(%"class.std::basic_ostream"* dereferenceable(272) %145, i8 signext 32)
  %147 = load i32, i32* %4, align 4
  %148 = call dereferenceable(272) %"class.std::basic_ostream"* @_ZNSolsEi(%"class.std::basic_ostream"* %146, i32 %147)
  %149 = call dereferenceable(272) %"class.std::basic_ostream"* @_ZStlsISt11char_traitsIcEERSt13basic_ostreamIcT_ES5_c(%"class.std::basic_ostream"* dereferenceable(272) %148, i8 signext 32)
  %150 = load i32, i32* %5, align 4
  %151 = call dereferenceable(272) %"class.std::basic_ostream"* @_ZNSolsEi(%"class.std::basic_ostream"* %149, i32 %150)
  %152 = call dereferenceable(272) %"class.std::basic_ostream"* @_ZStlsISt11char_traitsIcEERSt13basic_ostreamIcT_ES5_c(%"class.std::basic_ostream"* dereferenceable(272) %151, i8 signext 32)
  %153 = load i32, i32* %6, align 4
  %154 = call dereferenceable(272) %"class.std::basic_ostream"* @_ZNSolsEi(%"class.std::basic_ostream"* %152, i32 %153)
  br label %155

155:                                              ; preds = %140, %133, %120, %107, %94, %81, %72, %69
  br label %156

156:                                              ; preds = %155, %65, %61, %57, %53
  br label %157

157:                                              ; preds = %156
  %158 = load i32, i32* %6, align 4
  %159 = add nsw i32 %158, 1
  store i32 %159, i32* %6, align 4
  br label %50

160:                                              ; preds = %50
  br label %161

161:                                              ; preds = %160, %48
  %162 = load i32, i32* %5, align 4
  %163 = add nsw i32 %162, 1
  store i32 %163, i32* %5, align 4
  br label %33

164:                                              ; preds = %33
  br label %165

165:                                              ; preds = %164, %31
  %166 = load i32, i32* %4, align 4
  %167 = add nsw i32 %166, 1
  store i32 %167, i32* %4, align 4
  br label %20

168:                                              ; preds = %20
  br label %169

169:                                              ; preds = %168, %18
  %170 = load i32, i32* %3, align 4
  %171 = add nsw i32 %170, 1
  store i32 %171, i32* %3, align 4
  br label %11

172:                                              ; preds = %11
  br label %173

173:                                              ; preds = %172
  %174 = load i32, i32* %2, align 4
  %175 = add nsw i32 %174, 1
  store i32 %175, i32* %2, align 4
  br label %7

176:                                              ; preds = %7
  ret i32 0
}

declare dso_local dereferenceable(272) %"class.std::basic_ostream"* @_ZStlsISt11char_traitsIcEERSt13basic_ostreamIcT_ES5_c(%"class.std::basic_ostream"* dereferenceable(272), i8 signext) #1

declare dso_local dereferenceable(272) %"class.std::basic_ostream"* @_ZNSolsEi(%"class.std::basic_ostream"*, i32) #1

; Function Attrs: noinline uwtable
define internal void @_GLOBAL__sub_I_320.cpp() #0 section ".text.startup" {
  call void @__cxx_global_var_init()
  ret void
}


!llvm.module.flags = !{!0}
!llvm.ident = !{!1}

!0 = !{i32 1, !"wchar_size", i32 4}
!1 = !{!"clang version 10.0.0-4ubuntu1 "}
